target datalayout = "e-m:e-p270:32:32-p271:32:32-p272:64:64-i64:64-i128:128-f80:128-n8:16:32:64-S128"
target triple = "x86_64-unknown-linux-gnu"

%struct.SXNET_st = type { ptr, ptr }
%struct.SXNET_ID_st = type { ptr, ptr }

@.str.2 = private unnamed_addr constant [128 x i8] c"generated/home/dtcxzyw/WorkSpace/Projects/compilers/llvm-opt-benchmark/bench/libquic/libquic/boringssl/crypto/x509v3/v3_sxnet.c\00", align 1

; Function Attrs: nounwind uwtable
define hidden ptr @SXNET_get_id_INTEGER(ptr noundef %sx, ptr noundef %zone) #0 {
entry:
  %retval = alloca ptr, align 8
  %sx.addr = alloca ptr, align 8
  %zone.addr = alloca ptr, align 8
  %id = alloca ptr, align 8
  %i = alloca i64, align 8
  store ptr %sx, ptr %sx.addr, align 8
  store ptr %zone, ptr %zone.addr, align 8
  store i64 0, ptr %i, align 8
  br label %for.cond

for.cond:                                         ; preds = %for.inc, %entry
  %0 = load i64, ptr %i, align 8
  %1 = load ptr, ptr %sx.addr, align 8
  %ids = getelementptr inbounds %struct.SXNET_st, ptr %1, i32 0, i32 1
  %2 = load ptr, ptr %ids, align 8
  %call = call i64 @sk_num(ptr noundef %2)
  %cmp = icmp ult i64 %0, %call
  br i1 %cmp, label %for.body, label %for.end

for.body:                                         ; preds = %for.cond
  %3 = load ptr, ptr %sx.addr, align 8
  %ids1 = getelementptr inbounds %struct.SXNET_st, ptr %3, i32 0, i32 1
  %4 = load ptr, ptr %ids1, align 8
  %5 = load i64, ptr %i, align 8
  %call2 = call ptr @sk_value(ptr noundef %4, i64 noundef %5)
  store ptr %call2, ptr %id, align 8
  %6 = load ptr, ptr %id, align 8
  %zone3 = getelementptr inbounds %struct.SXNET_ID_st, ptr %6, i32 0, i32 0
  %7 = load ptr, ptr %zone3, align 8
  %8 = load ptr, ptr %zone.addr, align 8
  %call4 = call i32 @ASN1_STRING_cmp(ptr noundef %7, ptr noundef %8)
  %tobool = icmp ne i32 %call4, 0
  br i1 %tobool, label %if.end, label %if.then

if.then:                                          ; preds = %for.body
  %9 = load ptr, ptr %id, align 8
  %user = getelementptr inbounds %struct.SXNET_ID_st, ptr %9, i32 0, i32 1
  %10 = load ptr, ptr %user, align 8
  store ptr %10, ptr %retval, align 8
  br label %return

if.end:                                           ; preds = %for.body
  br label %for.inc

for.inc:                                          ; preds = %if.end
  %11 = load i64, ptr %i, align 8
  %inc = add i64 %11, 1
  store i64 %inc, ptr %i, align 8
  br label %for.cond, !llvm.loop !10

for.end:                                          ; preds = %for.cond
  store ptr null, ptr %retval, align 8
  br label %return

return:                                           ; preds = %for.end, %if.then
  %12 = load ptr, ptr %retval, align 8
  ret ptr %12
}

; Function Attrs: nounwind uwtable
define hidden ptr @SXNET_get_id_ulong(ptr noundef %sx, i64 noundef %lzone) #0 {
entry:
  %retval = alloca ptr, align 8
  %sx.addr = alloca ptr, align 8
  %lzone.addr = alloca i64, align 8
  %izone = alloca ptr, align 8
  %oct = alloca ptr, align 8
  store ptr %sx, ptr %sx.addr, align 8
  store i64 %lzone, ptr %lzone.addr, align 8
  store ptr null, ptr %izone, align 8
  %call = call ptr @ASN1_STRING_type_new(i32 noundef 2)
  store ptr %call, ptr %izone, align 8
  %tobool = icmp ne ptr %call, null
  br i1 %tobool, label %lor.lhs.false, label %if.then

lor.lhs.false:                                    ; preds = %entry
  %0 = load ptr, ptr %izone, align 8
  %1 = load i64, ptr %lzone.addr, align 8
  %call1 = call i32 @ASN1_INTEGER_set(ptr noundef %0, i64 noundef %1)
  %tobool2 = icmp ne i32 %call1, 0
  br i1 %tobool2, label %if.end, label %if.then

if.then:                                          ; preds = %lor.lhs.false, %entry
  call void @ERR_put_error(i32 noundef 20, i32 noundef 0, i32 noundef 65, ptr noundef @.str.2, i32 noundef 253)
  %2 = load ptr, ptr %izone, align 8
  call void @ASN1_STRING_free(ptr noundef %2)
  store ptr null, ptr %retval, align 8
  br label %return

if.end:                                           ; preds = %lor.lhs.false
  %3 = load ptr, ptr %sx.addr, align 8
  %4 = load ptr, ptr %izone, align 8
  %call3 = call ptr @SXNET_get_id_INTEGER(ptr noundef %3, ptr noundef %4)
  store ptr %call3, ptr %oct, align 8
  %5 = load ptr, ptr %izone, align 8
  call void @ASN1_STRING_free(ptr noundef %5)
  %6 = load ptr, ptr %oct, align 8
  store ptr %6, ptr %retval, align 8
  br label %return

return:                                           ; preds = %if.end, %if.then
  %7 = load ptr, ptr %retval, align 8
  ret ptr %7
}